; Function Attrs: mustprogress uwtable
define void @_ZN4lean4nameC2ERKS0_PKc(ptr noundef nonnull align 8 dereferenceable(8) initializes((0, 8)) %0, ptr noundef nonnull readonly align 8 captures(none) dereferenceable(8) %1, ptr noundef %2) unnamed_addr #1 align 2 personality ptr @__gxx_personality_v0 {
  %4 = load ptr, ptr %1, align 8, !tbaa !6
  %5 = tail call noundef ptr @lean_mk_string(ptr noundef %2)
  %6 = tail call noundef ptr @lean_name_mk_string(ptr noundef %4, ptr noundef %5)
  store ptr %6, ptr %0, align 8, !tbaa !6
  %7 = load ptr, ptr %1, align 8, !tbaa !6
  %8 = ptrtoint ptr %7 to i64
  %9 = and i64 %8, 1
  %.not.i = icmp eq i64 %9, 0
  br i1 %.not.i, label %10, label %_ZN4lean3incEP11lean_object.exit

10:                                               ; preds = %3
  %.val.i.i = load i32, ptr %7, align 4, !tbaa !9
  %11 = icmp sgt i32 %.val.i.i, 0
  br i1 %11, label %12, label %14, !prof !12

12:                                               ; preds = %10
  %13 = add nuw nsw i32 %.val.i.i, 1
  store i32 %13, ptr %7, align 4, !tbaa !9
  br label %_ZN4lean3incEP11lean_object.exit

14:                                               ; preds = %10
  %.not.i.i = icmp eq i32 %.val.i.i, 0
  br i1 %.not.i.i, label %_ZN4lean3incEP11lean_object.exit, label %15

15:                                               ; preds = %14
  invoke void @lean_inc_ref_cold(ptr noundef nonnull %7)
          to label %_ZN4lean3incEP11lean_object.exit unwind label %16

_ZN4lean3incEP11lean_object.exit:                 ; preds = %14, %12, %3, %15
  ret void

16:                                               ; preds = %15
  %17 = landingpad { ptr, i32 }
          cleanup
  tail call void @_ZN4lean10object_refD2Ev(ptr noundef nonnull align 8 dereferenceable(8) %0) #19
  resume { ptr, i32 } %17
}